; Function Attrs: mustprogress uwtable
define hidden void @_ZN7datalog30finite_product_relation_plugin10initializeEi(ptr noundef nonnull align 8 dereferenceable(112) %this, i32 noundef %fid) unnamed_addr #3 align 2 {
entry:
  %m_kind.i = getelementptr inbounds i8, ptr %this, i64 8
  store i32 %fid, ptr %m_kind.i, align 8
  %m_allocated_kinds.i = getelementptr inbounds i8, ptr %this, i64 56
  %0 = load ptr, ptr %m_allocated_kinds.i, align 8
  %cmp.i.i = icmp eq ptr %0, null
  br i1 %cmp.i.i, label %if.then.i.i, label %lor.lhs.false.i.i

lor.lhs.false.i.i:                                ; preds = %entry
  %arrayidx.i.i = getelementptr inbounds i8, ptr %0, i64 -4
  %1 = load i32, ptr %arrayidx.i.i, align 4
  %arrayidx4.i.i = getelementptr inbounds i8, ptr %0, i64 -8
  %2 = load i32, ptr %arrayidx4.i.i, align 4
  %cmp5.i.i = icmp eq i32 %1, %2
  br i1 %cmp5.i.i, label %if.then.i.i, label %_ZN7datalog14rel_spec_storeINS_30finite_product_relation_plugin8rel_specENS2_4hashE10default_eqIS2_EE18add_available_kindEi.exit

if.then.i.i:                                      ; preds = %lor.lhs.false.i.i, %entry
  tail call void @_ZN6vectorIiLb0EjE13expand_vectorEv(ptr noundef nonnull align 8 dereferenceable(8) %m_allocated_kinds.i)
  %.pre.i.i = load ptr, ptr %m_allocated_kinds.i, align 8
  %arrayidx8.phi.trans.insert.i.i = getelementptr inbounds i8, ptr %.pre.i.i, i64 -4
  %.pre1.i.i = load i32, ptr %arrayidx8.phi.trans.insert.i.i, align 4
  br label %_ZN7datalog14rel_spec_storeINS_30finite_product_relation_plugin8rel_specENS2_4hashE10default_eqIS2_EE18add_available_kindEi.exit

_ZN7datalog14rel_spec_storeINS_30finite_product_relation_plugin8rel_specENS2_4hashE10default_eqIS2_EE18add_available_kindEi.exit: ; preds = %lor.lhs.false.i.i, %if.then.i.i
  %3 = phi i32 [ %.pre1.i.i, %if.then.i.i ], [ %1, %lor.lhs.false.i.i ]
  %4 = phi ptr [ %.pre.i.i, %if.then.i.i ], [ %0, %lor.lhs.false.i.i ]
  %idx.ext.i.i = zext i32 %3 to i64
  %add.ptr.i.i = getelementptr inbounds i32, ptr %4, i64 %idx.ext.i.i
  store i32 %fid, ptr %add.ptr.i.i, align 4
  %5 = load ptr, ptr %m_allocated_kinds.i, align 8
  %arrayidx10.i.i = getelementptr inbounds i8, ptr %5, i64 -4
  %6 = load i32, ptr %arrayidx10.i.i, align 4
  %inc.i.i = add i32 %6, 1
  store i32 %inc.i.i, ptr %arrayidx10.i.i, align 4
  ret void
}